target datalayout = "e-m:e-p270:32:32-p271:32:32-p272:64:64-i64:64-f80:128-n8:16:32:64-S128"
target triple = "x86_64-pc-linux-gnu"

@.str = private unnamed_addr constant [6 x i8] c"%d %d\00", align 1
@.str.1 = private unnamed_addr constant [4 x i8] c"%d \00", align 1
@.str.2 = private unnamed_addr constant [4 x i8] c"%d\0A\00", align 1

; Function Attrs: noinline nounwind uwtable
define dso_local i32 @main() #0 {
  %1 = alloca i32, align 4
  %2 = alloca [11 x [11 x i32]], align 16
  %3 = alloca [11 x [11 x i32]], align 16
  %4 = alloca i32, align 4
  %5 = alloca i32, align 4
  %6 = alloca i32, align 4
  %7 = alloca i32, align 4
  %8 = alloca i32, align 4
  store i32 0, i32* %1, align 4
  %9 = call i32 (i8*, ...) @__isoc99_scanf(i8* getelementptr inbounds ([6 x i8], [6 x i8]* @.str, i64 0, i64 0), i32* %4, i32* %5)
  store i32 0, i32* %6, align 4
  br label %10

10:                                               ; preds = %34, %0
  %11 = load i32, i32* %6, align 4
  %12 = icmp slt i32 %11, 11
  br i1 %12, label %13, label %37

13:                                               ; preds = %10
  store i32 0, i32* %7, align 4
  br label %14

14:                                               ; preds = %30, %13
  %15 = load i32, i32* %7, align 4
  %16 = icmp slt i32 %15, 11
  br i1 %16, label %17, label %33

17:                                               ; preds = %14
  %18 = load i32, i32* %6, align 4
  %19 = sext i32 %18 to i64
  %20 = getelementptr inbounds [11 x [11 x i32]], [11 x [11 x i32]]* %2, i64 0, i64 %19
  %21 = load i32, i32* %7, align 4
  %22 = sext i32 %21 to i64
  %23 = getelementptr inbounds [11 x i32], [11 x i32]* %20, i64 0, i64 %22
  store i32 0, i32* %23, align 4
  %24 = load i32, i32* %6, align 4
  %25 = sext i32 %24 to i64
  %26 = getelementptr inbounds [11 x [11 x i32]], [11 x [11 x i32]]* %3, i64 0, i64 %25
  %27 = load i32, i32* %7, align 4
  %28 = sext i32 %27 to i64
  %29 = getelementptr inbounds [11 x i32], [11 x i32]* %26, i64 0, i64 %28
  store i32 0, i32* %29, align 4
  br label %30

30:                                               ; preds = %17
  %31 = load i32, i32* %7, align 4
  %32 = add nsw i32 %31, 1
  store i32 %32, i32* %7, align 4
  br label %14

33:                                               ; preds = %14
  br label %34

34:                                               ; preds = %33
  %35 = load i32, i32* %6, align 4
  %36 = add nsw i32 %35, 1
  store i32 %36, i32* %6, align 4
  br label %10

37:                                               ; preds = %10
  %38 = load i32, i32* %4, align 4
  %39 = getelementptr inbounds [11 x [11 x i32]], [11 x [11 x i32]]* %2, i64 0, i64 5
  %40 = getelementptr inbounds [11 x i32], [11 x i32]* %39, i64 0, i64 5
  store i32 %38, i32* %40, align 4
  store i32 1, i32* %8, align 4
  br label %41

41:                                               ; preds = %181, %37
  %42 = load i32, i32* %8, align 4
  %43 = load i32, i32* %5, align 4
  %44 = icmp sle i32 %42, %43
  br i1 %44, label %45, label %184

45:                                               ; preds = %41
  store i32 1, i32* %6, align 4
  br label %46

46:                                               ; preds = %148, %45
  %47 = load i32, i32* %6, align 4
  %48 = icmp slt i32 %47, 10
  br i1 %48, label %49, label %151

49:                                               ; preds = %46
  store i32 1, i32* %7, align 4
  br label %50

50:                                               ; preds = %144, %49
  %51 = load i32, i32* %7, align 4
  %52 = icmp slt i32 %51, 10
  br i1 %52, label %53, label %147

53:                                               ; preds = %50
  %54 = load i32, i32* %6, align 4
  %55 = sext i32 %54 to i64
  %56 = getelementptr inbounds [11 x [11 x i32]], [11 x [11 x i32]]* %2, i64 0, i64 %55
  %57 = load i32, i32* %7, align 4
  %58 = sext i32 %57 to i64
  %59 = getelementptr inbounds [11 x i32], [11 x i32]* %56, i64 0, i64 %58
  %60 = load i32, i32* %59, align 4
  %61 = mul nsw i32 2, %60
  %62 = load i32, i32* %6, align 4
  %63 = sub nsw i32 %62, 1
  %64 = sext i32 %63 to i64
  %65 = getelementptr inbounds [11 x [11 x i32]], [11 x [11 x i32]]* %2, i64 0, i64 %64
  %66 = load i32, i32* %7, align 4
  %67 = sub nsw i32 %66, 1
  %68 = sext i32 %67 to i64
  %69 = getelementptr inbounds [11 x i32], [11 x i32]* %65, i64 0, i64 %68
  %70 = load i32, i32* %69, align 4
  %71 = add nsw i32 %61, %70
  %72 = load i32, i32* %6, align 4
  %73 = sub nsw i32 %72, 1
  %74 = sext i32 %73 to i64
  %75 = getelementptr inbounds [11 x [11 x i32]], [11 x [11 x i32]]* %2, i64 0, i64 %74
  %76 = load i32, i32* %7, align 4
  %77 = sext i32 %76 to i64
  %78 = getelementptr inbounds [11 x i32], [11 x i32]* %75, i64 0, i64 %77
  %79 = load i32, i32* %78, align 4
  %80 = add nsw i32 %71, %79
  %81 = load i32, i32* %6, align 4
  %82 = sub nsw i32 %81, 1
  %83 = sext i32 %82 to i64
  %84 = getelementptr inbounds [11 x [11 x i32]], [11 x [11 x i32]]* %2, i64 0, i64 %83
  %85 = load i32, i32* %7, align 4
  %86 = add nsw i32 %85, 1
  %87 = sext i32 %86 to i64
  %88 = getelementptr inbounds [11 x i32], [11 x i32]* %84, i64 0, i64 %87
  %89 = load i32, i32* %88, align 4
  %90 = add nsw i32 %80, %89
  %91 = load i32, i32* %6, align 4
  %92 = sext i32 %91 to i64
  %93 = getelementptr inbounds [11 x [11 x i32]], [11 x [11 x i32]]* %2, i64 0, i64 %92
  %94 = load i32, i32* %7, align 4
  %95 = sub nsw i32 %94, 1
  %96 = sext i32 %95 to i64
  %97 = getelementptr inbounds [11 x i32], [11 x i32]* %93, i64 0, i64 %96
  %98 = load i32, i32* %97, align 4
  %99 = add nsw i32 %90, %98
  %100 = load i32, i32* %6, align 4
  %101 = sext i32 %100 to i64
  %102 = getelementptr inbounds [11 x [11 x i32]], [11 x [11 x i32]]* %2, i64 0, i64 %101
  %103 = load i32, i32* %7, align 4
  %104 = add nsw i32 %103, 1
  %105 = sext i32 %104 to i64
  %106 = getelementptr inbounds [11 x i32], [11 x i32]* %102, i64 0, i64 %105
  %107 = load i32, i32* %106, align 4
  %108 = add nsw i32 %99, %107
  %109 = load i32, i32* %6, align 4
  %110 = add nsw i32 %109, 1
  %111 = sext i32 %110 to i64
  %112 = getelementptr inbounds [11 x [11 x i32]], [11 x [11 x i32]]* %2, i64 0, i64 %111
  %113 = load i32, i32* %7, align 4
  %114 = sub nsw i32 %113, 1
  %115 = sext i32 %114 to i64
  %116 = getelementptr inbounds [11 x i32], [11 x i32]* %112, i64 0, i64 %115
  %117 = load i32, i32* %116, align 4
  %118 = add nsw i32 %108, %117
  %119 = load i32, i32* %6, align 4
  %120 = add nsw i32 %119, 1
  %121 = sext i32 %120 to i64
  %122 = getelementptr inbounds [11 x [11 x i32]], [11 x [11 x i32]]* %2, i64 0, i64 %121
  %123 = load i32, i32* %7, align 4
  %124 = sext i32 %123 to i64
  %125 = getelementptr inbounds [11 x i32], [11 x i32]* %122, i64 0, i64 %124
  %126 = load i32, i32* %125, align 4
  %127 = add nsw i32 %118, %126
  %128 = load i32, i32* %6, align 4
  %129 = add nsw i32 %128, 1
  %130 = sext i32 %129 to i64
  %131 = getelementptr inbounds [11 x [11 x i32]], [11 x [11 x i32]]* %2, i64 0, i64 %130
  %132 = load i32, i32* %7, align 4
  %133 = add nsw i32 %132, 1
  %134 = sext i32 %133 to i64
  %135 = getelementptr inbounds [11 x i32], [11 x i32]* %131, i64 0, i64 %134
  %136 = load i32, i32* %135, align 4
  %137 = add nsw i32 %127, %136
  %138 = load i32, i32* %6, align 4
  %139 = sext i32 %138 to i64
  %140 = getelementptr inbounds [11 x [11 x i32]], [11 x [11 x i32]]* %3, i64 0, i64 %139
  %141 = load i32, i32* %7, align 4
  %142 = sext i32 %141 to i64
  %143 = getelementptr inbounds [11 x i32], [11 x i32]* %140, i64 0, i64 %142
  store i32 %137, i32* %143, align 4
  br label %144

144:                                              ; preds = %53
  %145 = load i32, i32* %7, align 4
  %146 = add nsw i32 %145, 1
  store i32 %146, i32* %7, align 4
  br label %50

147:                                              ; preds = %50
  br label %148

148:                                              ; preds = %147
  %149 = load i32, i32* %6, align 4
  %150 = add nsw i32 %149, 1
  store i32 %150, i32* %6, align 4
  br label %46

151:                                              ; preds = %46
  store i32 0, i32* %6, align 4
  br label %152

152:                                              ; preds = %177, %151
  %153 = load i32, i32* %6, align 4
  %154 = icmp slt i32 %153, 11
  br i1 %154, label %155, label %180

155:                                              ; preds = %152
  store i32 0, i32* %7, align 4
  br label %156

156:                                              ; preds = %173, %155
  %157 = load i32, i32* %7, align 4
  %158 = icmp slt i32 %157, 11
  br i1 %158, label %159, label %176

159:                                              ; preds = %156
  %160 = load i32, i32* %6, align 4
  %161 = sext i32 %160 to i64
  %162 = getelementptr inbounds [11 x [11 x i32]], [11 x [11 x i32]]* %3, i64 0, i64 %161
  %163 = load i32, i32* %7, align 4
  %164 = sext i32 %163 to i64
  %165 = getelementptr inbounds [11 x i32], [11 x i32]* %162, i64 0, i64 %164
  %166 = load i32, i32* %165, align 4
  %167 = load i32, i32* %6, align 4
  %168 = sext i32 %167 to i64
  %169 = getelementptr inbounds [11 x [11 x i32]], [11 x [11 x i32]]* %2, i64 0, i64 %168
  %170 = load i32, i32* %7, align 4
  %171 = sext i32 %170 to i64
  %172 = getelementptr inbounds [11 x i32], [11 x i32]* %169, i64 0, i64 %171
  store i32 %166, i32* %172, align 4
  br label %173

173:                                              ; preds = %159
  %174 = load i32, i32* %7, align 4
  %175 = add nsw i32 %174, 1
  store i32 %175, i32* %7, align 4
  br label %156

176:                                              ; preds = %156
  br label %177

177:                                              ; preds = %176
  %178 = load i32, i32* %6, align 4
  %179 = add nsw i32 %178, 1
  store i32 %179, i32* %6, align 4
  br label %152

180:                                              ; preds = %152
  br label %181

181:                                              ; preds = %180
  %182 = load i32, i32* %8, align 4
  %183 = add nsw i32 %182, 1
  store i32 %183, i32* %8, align 4
  br label %41

184:                                              ; preds = %41
  store i32 1, i32* %6, align 4
  br label %185

185:                                              ; preds = %211, %184
  %186 = load i32, i32* %6, align 4
  %187 = icmp slt i32 %186, 10
  br i1 %187, label %188, label %214

188:                                              ; preds = %185
  store i32 1, i32* %7, align 4
  br label %189

189:                                              ; preds = %201, %188
  %190 = load i32, i32* %7, align 4
  %191 = icmp slt i32 %190, 9
  br i1 %191, label %192, label %204

192:                                              ; preds = %189
  %193 = load i32, i32* %6, align 4
  %194 = sext i32 %193 to i64
  %195 = getelementptr inbounds [11 x [11 x i32]], [11 x [11 x i32]]* %2, i64 0, i64 %194
  %196 = load i32, i32* %7, align 4
  %197 = sext i32 %196 to i64
  %198 = getelementptr inbounds [11 x i32], [11 x i32]* %195, i64 0, i64 %197
  %199 = load i32, i32* %198, align 4
  %200 = call i32 (i8*, ...) @printf(i8* getelementptr inbounds ([4 x i8], [4 x i8]* @.str.1, i64 0, i64 0), i32 %199)
  br label %201

201:                                              ; preds = %192
  %202 = load i32, i32* %7, align 4
  %203 = add nsw i32 %202, 1
  store i32 %203, i32* %7, align 4
  br label %189

204:                                              ; preds = %189
  %205 = load i32, i32* %6, align 4
  %206 = sext i32 %205 to i64
  %207 = getelementptr inbounds [11 x [11 x i32]], [11 x [11 x i32]]* %2, i64 0, i64 %206
  %208 = getelementptr inbounds [11 x i32], [11 x i32]* %207, i64 0, i64 9
  %209 = load i32, i32* %208, align 4
  %210 = call i32 (i8*, ...) @printf(i8* getelementptr inbounds ([4 x i8], [4 x i8]* @.str.2, i64 0, i64 0), i32 %209)
  br label %211

211:                                              ; preds = %204
  %212 = load i32, i32* %6, align 4
  %213 = add nsw i32 %212, 1
  store i32 %213, i32* %6, align 4
  br label %185

214:                                              ; preds = %185
  ret i32 0
}