; Function Attrs: nofree nounwind sspstrong uwtable
define dso_local i32 @main() local_unnamed_addr #0 {
  %1 = alloca [11 x [11 x i32]], align 16
  %2 = bitcast [11 x [11 x i32]]* %1 to i8*
  %3 = alloca [11 x [11 x i32]], align 16
  %4 = bitcast [11 x [11 x i32]]* %3 to i8*
  %5 = alloca i32, align 4
  %6 = alloca i32, align 4
  call void @llvm.lifetime.start.p0i8(i64 484, i8* nonnull %2) #5
  call void @llvm.lifetime.start.p0i8(i64 484, i8* nonnull %4) #5
  %7 = bitcast i32* %5 to i8*
  call void @llvm.lifetime.start.p0i8(i64 4, i8* nonnull %7) #5
  %8 = bitcast i32* %6 to i8*
  call void @llvm.lifetime.start.p0i8(i64 4, i8* nonnull %8) #5
  %9 = call i32 (i8*, ...) @__isoc99_scanf(i8* getelementptr inbounds ([6 x i8], [6 x i8]* @.str, i64 0, i64 0), i32* nonnull %5, i32* nonnull %6)
  call void @llvm.memset.p0i8.i64(i8* noundef nonnull align 16 dereferenceable(484) %2, i8 0, i64 484, i1 false)
  call void @llvm.memset.p0i8.i64(i8* noundef nonnull align 16 dereferenceable(484) %4, i8 0, i64 484, i1 false)
  %10 = load i32, i32* %5, align 4, !tbaa !5
  %11 = getelementptr inbounds [11 x [11 x i32]], [11 x [11 x i32]]* %1, i64 0, i64 5, i64 5
  store i32 %10, i32* %11, align 16, !tbaa !5
  %12 = load i32, i32* %6, align 4, !tbaa !5
  %13 = icmp slt i32 %12, 1
  br i1 %13, label %14, label %15

14:                                               ; preds = %189, %0
  br label %197

15:                                               ; preds = %0
  %16 = getelementptr inbounds [11 x [11 x i32]], [11 x [11 x i32]]* %1, i64 0, i64 1, i64 5
  %17 = getelementptr inbounds [11 x [11 x i32]], [11 x [11 x i32]]* %1, i64 0, i64 0, i64 6
  %18 = getelementptr inbounds [11 x [11 x i32]], [11 x [11 x i32]]* %1, i64 0, i64 1, i64 6
  %19 = getelementptr inbounds [11 x [11 x i32]], [11 x [11 x i32]]* %1, i64 0, i64 0, i64 5
  br label %20

20:                                               ; preds = %191, %15
  %21 = phi i32 [ %196, %191 ], [ 0, %15 ]
  %22 = phi i32 [ %195, %191 ], [ 0, %15 ]
  %23 = phi i32 [ %194, %191 ], [ 0, %15 ]
  %24 = phi i32 [ %193, %191 ], [ 0, %15 ]
  %25 = phi i32 [ %192, %191 ], [ 1, %15 ]
  br label %26

26:                                               ; preds = %20, %26
  %27 = phi i32 [ %21, %20 ], [ %129, %26 ]
  %28 = phi i32 [ %22, %20 ], [ %118, %26 ]
  %29 = phi i32 [ %23, %20 ], [ %121, %26 ]
  %30 = phi i32 [ %24, %20 ], [ %104, %26 ]
  %31 = phi i64 [ 1, %20 ], [ %33, %26 ]
  %32 = add nsw i64 %31, -1
  %33 = add nuw nsw i64 %31, 1
  %34 = getelementptr inbounds [11 x [11 x i32]], [11 x [11 x i32]]* %1, i64 0, i64 %31, i64 1
  %35 = load i32, i32* %34, align 4, !tbaa !5
  %36 = shl nsw i32 %35, 1
  %37 = getelementptr inbounds [11 x [11 x i32]], [11 x [11 x i32]]* %1, i64 0, i64 %32, i64 0
  %38 = load i32, i32* %37, align 4, !tbaa !5
  %39 = add nsw i32 %36, %38
  %40 = getelementptr inbounds [11 x [11 x i32]], [11 x [11 x i32]]* %1, i64 0, i64 %32, i64 1
  %41 = load i32, i32* %40, align 4, !tbaa !5
  %42 = add nsw i32 %39, %41
  %43 = getelementptr inbounds [11 x [11 x i32]], [11 x [11 x i32]]* %1, i64 0, i64 %32, i64 2
  %44 = load i32, i32* %43, align 4, !tbaa !5
  %45 = add nsw i32 %42, %44
  %46 = getelementptr inbounds [11 x [11 x i32]], [11 x [11 x i32]]* %1, i64 0, i64 %31, i64 0
  %47 = load i32, i32* %46, align 4, !tbaa !5
  %48 = add nsw i32 %45, %47
  %49 = getelementptr inbounds [11 x [11 x i32]], [11 x [11 x i32]]* %1, i64 0, i64 %31, i64 2
  %50 = load i32, i32* %49, align 4, !tbaa !5
  %51 = add nsw i32 %48, %50
  %52 = getelementptr inbounds [11 x [11 x i32]], [11 x [11 x i32]]* %1, i64 0, i64 %33, i64 0
  %53 = load i32, i32* %52, align 4, !tbaa !5
  %54 = add nsw i32 %51, %53
  %55 = getelementptr inbounds [11 x [11 x i32]], [11 x [11 x i32]]* %1, i64 0, i64 %33, i64 1
  %56 = load i32, i32* %55, align 4, !tbaa !5
  %57 = add nsw i32 %54, %56
  %58 = getelementptr inbounds [11 x [11 x i32]], [11 x [11 x i32]]* %1, i64 0, i64 %33, i64 2
  %59 = load i32, i32* %58, align 4, !tbaa !5
  %60 = add nsw i32 %57, %59
  %61 = getelementptr inbounds [11 x [11 x i32]], [11 x [11 x i32]]* %3, i64 0, i64 %31, i64 1
  store i32 %60, i32* %61, align 4, !tbaa !5
  %62 = shl nsw i32 %50, 1
  %63 = add nsw i32 %62, %41
  %64 = add nsw i32 %63, %44
  %65 = getelementptr inbounds [11 x [11 x i32]], [11 x [11 x i32]]* %1, i64 0, i64 %32, i64 3
  %66 = load i32, i32* %65, align 4, !tbaa !5
  %67 = add nsw i32 %64, %66
  %68 = add nsw i32 %67, %35
  %69 = getelementptr inbounds [11 x [11 x i32]], [11 x [11 x i32]]* %1, i64 0, i64 %31, i64 3
  %70 = load i32, i32* %69, align 4, !tbaa !5
  %71 = add nsw i32 %68, %70
  %72 = add nsw i32 %71, %56
  %73 = add nsw i32 %72, %59
  %74 = getelementptr inbounds [11 x [11 x i32]], [11 x [11 x i32]]* %1, i64 0, i64 %33, i64 3
  %75 = load i32, i32* %74, align 4, !tbaa !5
  %76 = add nsw i32 %73, %75
  %77 = getelementptr inbounds [11 x [11 x i32]], [11 x [11 x i32]]* %3, i64 0, i64 %31, i64 2
  store i32 %76, i32* %77, align 4, !tbaa !5
  %78 = shl nsw i32 %70, 1
  %79 = add nsw i32 %78, %44
  %80 = add nsw i32 %79, %66
  %81 = getelementptr inbounds [11 x [11 x i32]], [11 x [11 x i32]]* %1, i64 0, i64 %32, i64 4
  %82 = load i32, i32* %81, align 4, !tbaa !5
  %83 = add nsw i32 %80, %82
  %84 = add nsw i32 %83, %50
  %85 = getelementptr inbounds [11 x [11 x i32]], [11 x [11 x i32]]* %1, i64 0, i64 %31, i64 4
  %86 = load i32, i32* %85, align 4, !tbaa !5
  %87 = add nsw i32 %84, %86
  %88 = add nsw i32 %87, %59
  %89 = add nsw i32 %88, %75
  %90 = getelementptr inbounds [11 x [11 x i32]], [11 x [11 x i32]]* %1, i64 0, i64 %33, i64 4
  %91 = load i32, i32* %90, align 4, !tbaa !5
  %92 = add nsw i32 %89, %91
  %93 = getelementptr inbounds [11 x [11 x i32]], [11 x [11 x i32]]* %3, i64 0, i64 %31, i64 3
  store i32 %92, i32* %93, align 4, !tbaa !5
  %94 = shl nsw i32 %86, 1
  %95 = add nsw i32 %94, %66
  %96 = add nsw i32 %95, %82
  %97 = add nsw i32 %96, %27
  %98 = add nsw i32 %97, %70
  %99 = getelementptr inbounds [11 x [11 x i32]], [11 x [11 x i32]]* %1, i64 0, i64 %31, i64 5
  %100 = add nsw i32 %98, %30
  %101 = add nsw i32 %100, %75
  %102 = add nsw i32 %101, %91
  %103 = getelementptr inbounds [11 x [11 x i32]], [11 x [11 x i32]]* %1, i64 0, i64 %33, i64 5
  %104 = load i32, i32* %103, align 4, !tbaa !5
  %105 = add nsw i32 %102, %104
  %106 = getelementptr inbounds [11 x [11 x i32]], [11 x [11 x i32]]* %3, i64 0, i64 %31, i64 4
  store i32 %105, i32* %106, align 4, !tbaa !5
  %107 = shl nsw i32 %30, 1
  %108 = add nsw i32 %107, %82
  %109 = add nsw i32 %108, %27
  %110 = getelementptr inbounds [11 x [11 x i32]], [11 x [11 x i32]]* %1, i64 0, i64 %32, i64 6
  %111 = add nsw i32 %109, %29
  %112 = add nsw i32 %111, %86
  %113 = getelementptr inbounds [11 x [11 x i32]], [11 x [11 x i32]]* %1, i64 0, i64 %31, i64 6
  %114 = add nsw i32 %112, %28
  %115 = add nsw i32 %114, %91
  %116 = add nsw i32 %115, %104
  %117 = getelementptr inbounds [11 x [11 x i32]], [11 x [11 x i32]]* %1, i64 0, i64 %33, i64 6
  %118 = load i32, i32* %117, align 4, !tbaa !5
  %119 = add nsw i32 %116, %118
  %120 = getelementptr inbounds [11 x [11 x i32]], [11 x [11 x i32]]* %3, i64 0, i64 %31, i64 5
  store i32 %119, i32* %120, align 4, !tbaa !5
  %121 = load i32, i32* %113, align 4, !tbaa !5
  %122 = shl nsw i32 %121, 1
  %123 = add nsw i32 %122, %27
  %124 = load i32, i32* %110, align 4, !tbaa !5
  %125 = add nsw i32 %123, %124
  %126 = getelementptr inbounds [11 x [11 x i32]], [11 x [11 x i32]]* %1, i64 0, i64 %32, i64 7
  %127 = load i32, i32* %126, align 4, !tbaa !5
  %128 = add nsw i32 %125, %127
  %129 = load i32, i32* %99, align 4, !tbaa !5
  %130 = add nsw i32 %128, %129
  %131 = getelementptr inbounds [11 x [11 x i32]], [11 x [11 x i32]]* %1, i64 0, i64 %31, i64 7
  %132 = load i32, i32* %131, align 4, !tbaa !5
  %133 = add nsw i32 %130, %132
  %134 = add nsw i32 %133, %104
  %135 = add nsw i32 %134, %118
  %136 = getelementptr inbounds [11 x [11 x i32]], [11 x [11 x i32]]* %1, i64 0, i64 %33, i64 7
  %137 = load i32, i32* %136, align 4, !tbaa !5
  %138 = add nsw i32 %135, %137
  %139 = getelementptr inbounds [11 x [11 x i32]], [11 x [11 x i32]]* %3, i64 0, i64 %31, i64 6
  store i32 %138, i32* %139, align 4, !tbaa !5
  %140 = shl nsw i32 %132, 1
  %141 = add nsw i32 %140, %124
  %142 = add nsw i32 %141, %127
  %143 = getelementptr inbounds [11 x [11 x i32]], [11 x [11 x i32]]* %1, i64 0, i64 %32, i64 8
  %144 = load i32, i32* %143, align 4, !tbaa !5
  %145 = add nsw i32 %142, %144
  %146 = add nsw i32 %145, %121
  %147 = getelementptr inbounds [11 x [11 x i32]], [11 x [11 x i32]]* %1, i64 0, i64 %31, i64 8
  %148 = load i32, i32* %147, align 4, !tbaa !5
  %149 = add nsw i32 %146, %148
  %150 = add nsw i32 %149, %118
  %151 = add nsw i32 %150, %137
  %152 = getelementptr inbounds [11 x [11 x i32]], [11 x [11 x i32]]* %1, i64 0, i64 %33, i64 8
  %153 = load i32, i32* %152, align 4, !tbaa !5
  %154 = add nsw i32 %151, %153
  %155 = getelementptr inbounds [11 x [11 x i32]], [11 x [11 x i32]]* %3, i64 0, i64 %31, i64 7
  store i32 %154, i32* %155, align 4, !tbaa !5
  %156 = shl nsw i32 %148, 1
  %157 = add nsw i32 %156, %127
  %158 = add nsw i32 %157, %144
  %159 = getelementptr inbounds [11 x [11 x i32]], [11 x [11 x i32]]* %1, i64 0, i64 %32, i64 9
  %160 = load i32, i32* %159, align 4, !tbaa !5
  %161 = add nsw i32 %158, %160
  %162 = add nsw i32 %161, %132
  %163 = getelementptr inbounds [11 x [11 x i32]], [11 x [11 x i32]]* %1, i64 0, i64 %31, i64 9
  %164 = load i32, i32* %163, align 4, !tbaa !5
  %165 = add nsw i32 %162, %164
  %166 = add nsw i32 %165, %137
  %167 = add nsw i32 %166, %153
  %168 = getelementptr inbounds [11 x [11 x i32]], [11 x [11 x i32]]* %1, i64 0, i64 %33, i64 9
  %169 = load i32, i32* %168, align 4, !tbaa !5
  %170 = add nsw i32 %167, %169
  %171 = getelementptr inbounds [11 x [11 x i32]], [11 x [11 x i32]]* %3, i64 0, i64 %31, i64 8
  store i32 %170, i32* %171, align 4, !tbaa !5
  %172 = shl nsw i32 %164, 1
  %173 = add nsw i32 %172, %144
  %174 = add nsw i32 %173, %160
  %175 = getelementptr inbounds [11 x [11 x i32]], [11 x [11 x i32]]* %1, i64 0, i64 %32, i64 10
  %176 = load i32, i32* %175, align 4, !tbaa !5
  %177 = add nsw i32 %174, %176
  %178 = add nsw i32 %177, %148
  %179 = getelementptr inbounds [11 x [11 x i32]], [11 x [11 x i32]]* %1, i64 0, i64 %31, i64 10
  %180 = load i32, i32* %179, align 4, !tbaa !5
  %181 = add nsw i32 %178, %180
  %182 = add nsw i32 %181, %153
  %183 = add nsw i32 %182, %169
  %184 = getelementptr inbounds [11 x [11 x i32]], [11 x [11 x i32]]* %1, i64 0, i64 %33, i64 10
  %185 = load i32, i32* %184, align 4, !tbaa !5
  %186 = add nsw i32 %183, %185
  %187 = getelementptr inbounds [11 x [11 x i32]], [11 x [11 x i32]]* %3, i64 0, i64 %31, i64 9
  store i32 %186, i32* %187, align 4, !tbaa !5
  %188 = icmp eq i64 %33, 10
  br i1 %188, label %189, label %26, !llvm.loop !9

189:                                              ; preds = %26
  call void @llvm.memcpy.p0i8.p0i8.i64(i8* noundef nonnull align 16 dereferenceable(484) %2, i8* noundef nonnull align 16 dereferenceable(484) %4, i64 484, i1 false)
  %190 = icmp eq i32 %25, %12
  br i1 %190, label %14, label %191, !llvm.loop !11

191:                                              ; preds = %189
  %192 = add nuw i32 %25, 1
  %193 = load i32, i32* %16, align 16, !tbaa !5
  %194 = load i32, i32* %17, align 8, !tbaa !5
  %195 = load i32, i32* %18, align 4, !tbaa !5
  %196 = load i32, i32* %19, align 4, !tbaa !5
  br label %20

197:                                              ; preds = %14, %197
  %198 = phi i64 [ %226, %197 ], [ 1, %14 ]
  %199 = getelementptr inbounds [11 x [11 x i32]], [11 x [11 x i32]]* %1, i64 0, i64 %198, i64 1
  %200 = load i32, i32* %199, align 4, !tbaa !5
  %201 = call i32 (i8*, ...) @printf(i8* nonnull dereferenceable(1) getelementptr inbounds ([4 x i8], [4 x i8]* @.str.1, i64 0, i64 0), i32 %200)
  %202 = getelementptr inbounds [11 x [11 x i32]], [11 x [11 x i32]]* %1, i64 0, i64 %198, i64 2
  %203 = load i32, i32* %202, align 4, !tbaa !5
  %204 = call i32 (i8*, ...) @printf(i8* nonnull dereferenceable(1) getelementptr inbounds ([4 x i8], [4 x i8]* @.str.1, i64 0, i64 0), i32 %203)
  %205 = getelementptr inbounds [11 x [11 x i32]], [11 x [11 x i32]]* %1, i64 0, i64 %198, i64 3
  %206 = load i32, i32* %205, align 4, !tbaa !5
  %207 = call i32 (i8*, ...) @printf(i8* nonnull dereferenceable(1) getelementptr inbounds ([4 x i8], [4 x i8]* @.str.1, i64 0, i64 0), i32 %206)
  %208 = getelementptr inbounds [11 x [11 x i32]], [11 x [11 x i32]]* %1, i64 0, i64 %198, i64 4
  %209 = load i32, i32* %208, align 4, !tbaa !5
  %210 = call i32 (i8*, ...) @printf(i8* nonnull dereferenceable(1) getelementptr inbounds ([4 x i8], [4 x i8]* @.str.1, i64 0, i64 0), i32 %209)
  %211 = getelementptr inbounds [11 x [11 x i32]], [11 x [11 x i32]]* %1, i64 0, i64 %198, i64 5
  %212 = load i32, i32* %211, align 4, !tbaa !5
  %213 = call i32 (i8*, ...) @printf(i8* nonnull dereferenceable(1) getelementptr inbounds ([4 x i8], [4 x i8]* @.str.1, i64 0, i64 0), i32 %212)
  %214 = getelementptr inbounds [11 x [11 x i32]], [11 x [11 x i32]]* %1, i64 0, i64 %198, i64 6
  %215 = load i32, i32* %214, align 4, !tbaa !5
  %216 = call i32 (i8*, ...) @printf(i8* nonnull dereferenceable(1) getelementptr inbounds ([4 x i8], [4 x i8]* @.str.1, i64 0, i64 0), i32 %215)
  %217 = getelementptr inbounds [11 x [11 x i32]], [11 x [11 x i32]]* %1, i64 0, i64 %198, i64 7
  %218 = load i32, i32* %217, align 4, !tbaa !5
  %219 = call i32 (i8*, ...) @printf(i8* nonnull dereferenceable(1) getelementptr inbounds ([4 x i8], [4 x i8]* @.str.1, i64 0, i64 0), i32 %218)
  %220 = getelementptr inbounds [11 x [11 x i32]], [11 x [11 x i32]]* %1, i64 0, i64 %198, i64 8
  %221 = load i32, i32* %220, align 4, !tbaa !5
  %222 = call i32 (i8*, ...) @printf(i8* nonnull dereferenceable(1) getelementptr inbounds ([4 x i8], [4 x i8]* @.str.1, i64 0, i64 0), i32 %221)
  %223 = getelementptr inbounds [11 x [11 x i32]], [11 x [11 x i32]]* %1, i64 0, i64 %198, i64 9
  %224 = load i32, i32* %223, align 4, !tbaa !5
  %225 = call i32 (i8*, ...) @printf(i8* nonnull dereferenceable(1) getelementptr inbounds ([4 x i8], [4 x i8]* @.str.2, i64 0, i64 0), i32 %224)
  %226 = add nuw nsw i64 %198, 1
  %227 = icmp eq i64 %226, 10
  br i1 %227, label %228, label %197, !llvm.loop !12

228:                                              ; preds = %197
  call void @llvm.lifetime.end.p0i8(i64 4, i8* nonnull %8) #5
  call void @llvm.lifetime.end.p0i8(i64 4, i8* nonnull %7) #5
  call void @llvm.lifetime.end.p0i8(i64 484, i8* nonnull %4) #5
  call void @llvm.lifetime.end.p0i8(i64 484, i8* nonnull %2) #5
  ret i32 0
}